target datalayout = "e-m:e-p270:32:32-p271:32:32-p272:64:64-i64:64-i128:128-f80:128-n8:16:32:64-S128"
target triple = "x86_64-pc-linux-gnu"

%"class.duckdb::BaseStatistics" = type { %"struct.duckdb::LogicalType", i8, i8, i64, %union.anon, %"class.duckdb::unique_ptr" }
%"struct.duckdb::LogicalType" = type { i8, i8, %"class.duckdb::shared_ptr" }
%"class.duckdb::shared_ptr" = type { %"class.std::shared_ptr" }
%"class.std::shared_ptr" = type { %"class.std::__shared_ptr" }
%"class.std::__shared_ptr" = type { ptr, %"class.std::__shared_count" }
%"class.std::__shared_count" = type { ptr }
%union.anon = type { %"struct.duckdb::NumericStatsData" }
%"struct.duckdb::NumericStatsData" = type { i8, i8, %"struct.duckdb::NumericValueUnion", %"struct.duckdb::NumericValueUnion" }
%"struct.duckdb::NumericValueUnion" = type { %"union.duckdb::NumericValueUnion::Val" }
%"union.duckdb::NumericValueUnion::Val" = type { %"struct.duckdb::hugeint_t" }
%"struct.duckdb::hugeint_t" = type { i64, i64 }
%"class.duckdb::unique_ptr" = type { %"class.std::unique_ptr" }
%"class.std::unique_ptr" = type { %"struct.std::__uniq_ptr_data" }
%"struct.std::__uniq_ptr_data" = type { %"class.std::__uniq_ptr_impl" }
%"class.std::__uniq_ptr_impl" = type { %"class.std::tuple" }
%"class.std::tuple" = type { %"struct.std::_Tuple_impl" }
%"struct.std::_Tuple_impl" = type { %"struct.std::_Head_base.1" }
%"struct.std::_Head_base.1" = type { ptr }

; Function Attrs: mustprogress nounwind uwtable
define noundef nonnull align 8 dereferenceable(40) ptr @_ZN6duckdb12NumericStats13GetDataUnsafeERKNS_14BaseStatisticsE(ptr noundef nonnull align 8 dereferenceable(88) %0) #6 align 2 {
  %2 = alloca ptr, align 8
  store ptr %0, ptr %2, align 8, !tbaa !3
  %3 = load ptr, ptr %2, align 8, !tbaa !3
  %4 = getelementptr inbounds nuw %"class.duckdb::BaseStatistics", ptr %3, i32 0, i32 4
  ret ptr %4
}

; Function Attrs: inlinehint mustprogress nounwind uwtable
define linkonce_odr noundef zeroext i8 @_ZNK6duckdb11LogicalType2idEv(ptr noundef nonnull align 8 dereferenceable(24) %0) #5 comdat align 2 {
  %2 = alloca ptr, align 8
  store ptr %0, ptr %2, align 8, !tbaa !10
  %3 = load ptr, ptr %2, align 8
  %4 = getelementptr inbounds nuw %"struct.duckdb::LogicalType", ptr %3, i32 0, i32 0
  %5 = load i8, ptr %4, align 8, !tbaa !36
  ret i8 %5
}

; Function Attrs: mustprogress nounwind uwtable
define linkonce_odr noundef nonnull align 8 dereferenceable(24) ptr @_ZNK6duckdb14BaseStatistics7GetTypeEv(ptr noundef nonnull align 8 dereferenceable(88) %0) #6 comdat align 2 {
  %2 = alloca ptr, align 8
  store ptr %0, ptr %2, align 8, !tbaa !3
  %3 = load ptr, ptr %2, align 8
  %4 = getelementptr inbounds nuw %"class.duckdb::BaseStatistics", ptr %3, i32 0, i32 0
  ret ptr %4
}

; Function Attrs: mustprogress uwtable
define noundef zeroext i1 @_ZN6duckdb12NumericStats6HasMaxERKNS_14BaseStatisticsE(ptr noundef nonnull align 8 dereferenceable(88) %0) #4 align 2 {
  %2 = alloca i1, align 1
  %3 = alloca ptr, align 8
  store ptr %0, ptr %3, align 8, !tbaa !3
  %4 = load ptr, ptr %3, align 8, !tbaa !3
  %5 = call noundef nonnull align 8 dereferenceable(24) ptr @_ZNK6duckdb14BaseStatistics7GetTypeEv(ptr noundef nonnull align 8 dereferenceable(88) %4)
  %6 = call noundef zeroext i8 @_ZNK6duckdb11LogicalType2idEv(ptr noundef nonnull align 8 dereferenceable(24) %5)
  %7 = icmp eq i8 %6, 1
  br i1 %7, label %8, label %9

8:                                                ; preds = %1
  store i1 false, ptr %2, align 1
  br label %15

9:                                                ; preds = %1
  %10 = load ptr, ptr %3, align 8, !tbaa !3
  %11 = call noundef nonnull align 8 dereferenceable(40) ptr @_ZN6duckdb12NumericStats13GetDataUnsafeERKNS_14BaseStatisticsE(ptr noundef nonnull align 8 dereferenceable(88) %10)
  %12 = getelementptr inbounds nuw %"struct.duckdb::NumericStatsData", ptr %11, i32 0, i32 1
  %13 = load i8, ptr %12, align 1, !tbaa !274, !range !44, !noundef !45
  %14 = trunc i8 %13 to i1
  store i1 %14, ptr %2, align 1
  br label %15

15:                                               ; preds = %9, %8
  %16 = load i1, ptr %2, align 1
  ret i1 %16
}

; Function Attrs: mustprogress uwtable
define noundef zeroext i1 @_ZN6duckdb12NumericStats6HasMinERKNS_14BaseStatisticsE(ptr noundef nonnull align 8 dereferenceable(88) %0) #4 align 2 {
  %2 = alloca i1, align 1
  %3 = alloca ptr, align 8
  store ptr %0, ptr %3, align 8, !tbaa !3
  %4 = load ptr, ptr %3, align 8, !tbaa !3
  %5 = call noundef nonnull align 8 dereferenceable(24) ptr @_ZNK6duckdb14BaseStatistics7GetTypeEv(ptr noundef nonnull align 8 dereferenceable(88) %4)
  %6 = call noundef zeroext i8 @_ZNK6duckdb11LogicalType2idEv(ptr noundef nonnull align 8 dereferenceable(24) %5)
  %7 = icmp eq i8 %6, 1
  br i1 %7, label %8, label %9

8:                                                ; preds = %1
  store i1 false, ptr %2, align 1
  br label %15

9:                                                ; preds = %1
  %10 = load ptr, ptr %3, align 8, !tbaa !3
  %11 = call noundef nonnull align 8 dereferenceable(40) ptr @_ZN6duckdb12NumericStats13GetDataUnsafeERKNS_14BaseStatisticsE(ptr noundef nonnull align 8 dereferenceable(88) %10)
  %12 = getelementptr inbounds nuw %"struct.duckdb::NumericStatsData", ptr %11, i32 0, i32 0
  %13 = load i8, ptr %12, align 8, !tbaa !271, !range !44, !noundef !45
  %14 = trunc i8 %13 to i1
  store i1 %14, ptr %2, align 1
  br label %15

15:                                               ; preds = %9, %8
  %16 = load i1, ptr %2, align 1
  ret i1 %16
}

; Function Attrs: mustprogress uwtable
define noundef zeroext i1 @_ZN6duckdb12NumericStats9HasMinMaxERKNS_14BaseStatisticsE(ptr noundef nonnull align 8 dereferenceable(88) %0) #4 align 2 {
  %2 = alloca ptr, align 8
  store ptr %0, ptr %2, align 8, !tbaa !3
  %3 = load ptr, ptr %2, align 8, !tbaa !3
  %4 = call noundef zeroext i1 @_ZN6duckdb12NumericStats6HasMinERKNS_14BaseStatisticsE(ptr noundef nonnull align 8 dereferenceable(88) %3)
  br i1 %4, label %5, label %8

5:                                                ; preds = %1
  %6 = load ptr, ptr %2, align 8, !tbaa !3
  %7 = call noundef zeroext i1 @_ZN6duckdb12NumericStats6HasMaxERKNS_14BaseStatisticsE(ptr noundef nonnull align 8 dereferenceable(88) %6)
  br label %8

8:                                                ; preds = %5, %1
  %9 = phi i1 [ false, %1 ], [ %7, %5 ]
  ret i1 %9
}