; Function Attrs: mustprogress nofree norecurse nosync nounwind willreturn memory(argmem: read) uwtable
define noundef zeroext i1 @_ZN6duckdb12NumericStats9HasMinMaxERKNS_14BaseStatisticsE(ptr noundef nonnull readonly align 8 captures(none) dereferenceable(88) %0) local_unnamed_addr #6 align 2 {
  %2 = load i8, ptr %0, align 8, !tbaa !28
  %3 = icmp ne i8 %2, 1
  %4 = getelementptr inbounds nuw i8, ptr %0, i64 40
  %5 = load i8, ptr %4, align 8, !range !50
  %6 = trunc nuw i8 %5 to i1
  %.0.i = select i1 %3, i1 %6, i1 false
  br i1 %.0.i, label %7, label %11

7:                                                ; preds = %1
  %8 = getelementptr inbounds nuw i8, ptr %0, i64 41
  %9 = load i8, ptr %8, align 1, !range !50
  %10 = trunc nuw i8 %9 to i1
  br label %11

11:                                               ; preds = %7, %1
  %12 = phi i1 [ false, %1 ], [ %10, %7 ]
  ret i1 %12
}